; ModuleID = 'bench/openusd/original/pluginBase.cpp.ll'
source_filename = "bench/openusd/original/pluginBase.cpp.ll"
target datalayout = "e-m:e-p270:32:32-p271:32:32-p272:64:64-i64:64-i128:128-f80:128-n8:16:32:64-S128"
target triple = "x86_64-pc-linux-gnu"

%"struct.pxrInternal_v0_24__pxrReserved__::(anonymous namespace)::Tf_RegistryStaticInit" = type { i8 }

$__clang_call_terminate = comdat any

@.str = private unnamed_addr constant [3 x i8] c"hf\00", align 1
@.str.1 = private unnamed_addr constant [7 x i8] c"TfType\00", align 1
@_ZTVN32pxrInternal_v0_24__pxrReserved__12HfPluginBaseE = unnamed_addr constant { [4 x ptr] } { [4 x ptr] [ptr null, ptr @_ZTIN32pxrInternal_v0_24__pxrReserved__12HfPluginBaseE, ptr @_ZN32pxrInternal_v0_24__pxrReserved__12HfPluginBaseD1Ev, ptr @_ZN32pxrInternal_v0_24__pxrReserved__12HfPluginBaseD0Ev] }, align 8
@_ZTVN10__cxxabiv117__class_type_infoE = external global [0 x ptr]
@_ZTSN32pxrInternal_v0_24__pxrReserved__12HfPluginBaseE = constant [51 x i8] c"N32pxrInternal_v0_24__pxrReserved__12HfPluginBaseE\00", align 1
@_ZTIN32pxrInternal_v0_24__pxrReserved__12HfPluginBaseE = constant { ptr, ptr } { ptr getelementptr inbounds (ptr, ptr @_ZTVN10__cxxabiv117__class_type_infoE, i64 2), ptr @_ZTSN32pxrInternal_v0_24__pxrReserved__12HfPluginBaseE }, align 8
@_ZN32pxrInternal_v0_24__pxrReserved__15Arch_PerLibInitINS_12_GLOBAL__N_121Tf_RegistryStaticInitEE4initE = internal global %"struct.pxrInternal_v0_24__pxrReserved__::(anonymous namespace)::Tf_RegistryStaticInit" zeroinitializer, align 1
@__dso_handle = external hidden global i8
@llvm.global_ctors = appending global [3 x { i32, ptr, ptr }] [{ i32, ptr, ptr } { i32 65535, ptr @__cxx_global_var_init.2, ptr null }, { i32, ptr, ptr } { i32 200, ptr @_ZN32pxrInternal_v0_24__pxrReserved__L17_Tf_RegistryAdd16EPNS_6TfTypeE, ptr null }, { i32, ptr, ptr } { i32 65535, ptr @_GLOBAL__sub_I_pluginBase.cpp, ptr null }]
@llvm.compiler.used = appending global [1 x ptr] [ptr @_ZN32pxrInternal_v0_24__pxrReserved__L17_Tf_RegistryAdd16EPNS_6TfTypeE], section "llvm.metadata"

@_ZN32pxrInternal_v0_24__pxrReserved__12HfPluginBaseD1Ev = unnamed_addr alias void (ptr), ptr @_ZN32pxrInternal_v0_24__pxrReserved__12HfPluginBaseD2Ev

; Function Attrs: mustprogress uwtable
define internal void @_ZN32pxrInternal_v0_24__pxrReserved__L17_Tf_RegistryAdd16EPNS_6TfTypeE(ptr nocapture readnone %0) #0 section ".pxrctor" {
  tail call void @_ZN32pxrInternal_v0_24__pxrReserved__15Tf_RegistryInit3AddEPKcPFvPvS3_ES2_(ptr noundef nonnull @.str, ptr noundef nonnull @_ZN32pxrInternal_v0_24__pxrReserved__L22_Tf_RegistryFunction16EPNS_6TfTypeEPv, ptr noundef nonnull @.str.1)
  ret void
}

; Function Attrs: mustprogress uwtable
define internal void @_ZN32pxrInternal_v0_24__pxrReserved__L22_Tf_RegistryFunction16EPNS_6TfTypeEPv(ptr nocapture readnone %0, ptr nocapture readnone %1) #0 {
  %3 = tail call noundef nonnull align 8 dereferenceable(8) ptr @_ZN32pxrInternal_v0_24__pxrReserved__6TfType11_DefineImplERKSt9type_infoPPS2_PPFPvS6_bEmmbb(ptr noundef nonnull align 8 dereferenceable(16) @_ZTIN32pxrInternal_v0_24__pxrReserved__12HfPluginBaseE, ptr noundef null, ptr noundef null, i64 noundef 0, i64 noundef 8, i1 noundef zeroext false, i1 noundef zeroext false)
  ret void
}

; Function Attrs: mustprogress nofree norecurse nosync nounwind willreturn memory(none) uwtable
define void @_ZN32pxrInternal_v0_24__pxrReserved__12HfPluginBaseD2Ev(ptr nocapture nonnull readnone align 8 %0) unnamed_addr #1 align 2 {
  ret void
}

; Function Attrs: mustprogress nounwind uwtable
define void @_ZN32pxrInternal_v0_24__pxrReserved__12HfPluginBaseD0Ev(ptr noundef nonnull align 8 dereferenceable(8) %0) unnamed_addr #2 align 2 {
  tail call void @_ZN32pxrInternal_v0_24__pxrReserved__12HfPluginBaseD1Ev(ptr noundef nonnull align 8 dereferenceable(8) %0) #9
  tail call void @_ZdlPvm(ptr noundef nonnull %0, i64 noundef 8) #10
  ret void
}

; Function Attrs: nobuiltin nounwind
declare void @_ZdlPvm(ptr noundef, i64 noundef) local_unnamed_addr #3

; Function Attrs: uwtable
define internal void @__cxx_global_var_init.2() #4 section ".text.startup" {
  tail call void @_ZN32pxrInternal_v0_24__pxrReserved__19Tf_RegistryInitCtorEPKc(ptr noundef nonnull @.str)
  %1 = tail call i32 @__cxa_atexit(ptr nonnull @_ZN32pxrInternal_v0_24__pxrReserved__12_GLOBAL__N_121Tf_RegistryStaticInitD2Ev, ptr nonnull @_ZN32pxrInternal_v0_24__pxrReserved__15Arch_PerLibInitINS_12_GLOBAL__N_121Tf_RegistryStaticInitEE4initE, ptr nonnull @__dso_handle) #9
  ret void
}

; Function Attrs: mustprogress nounwind uwtable
define internal void @_ZN32pxrInternal_v0_24__pxrReserved__12_GLOBAL__N_121Tf_RegistryStaticInitD2Ev(ptr nocapture nonnull readnone align 1 %0) unnamed_addr #2 align 2 personality ptr @__gxx_personality_v0 {
  invoke void @_ZN32pxrInternal_v0_24__pxrReserved__19Tf_RegistryInitDtorEPKc(ptr noundef nonnull @.str)
          to label %2 unwind label %3

2:                                                ; preds = %1
  ret void

3:                                                ; preds = %1
  %4 = landingpad { ptr, i32 }
          catch ptr null
  %5 = extractvalue { ptr, i32 } %4, 0
  tail call void @__clang_call_terminate(ptr %5) #11
  unreachable
}

; Function Attrs: nofree nounwind
declare i32 @__cxa_atexit(ptr, ptr, ptr) local_unnamed_addr #5

declare noundef nonnull align 8 dereferenceable(8) ptr @_ZN32pxrInternal_v0_24__pxrReserved__6TfType11_DefineImplERKSt9type_infoPPS2_PPFPvS6_bEmmbb(ptr noundef nonnull align 8 dereferenceable(16), ptr noundef, ptr noundef, i64 noundef, i64 noundef, i1 noundef zeroext, i1 noundef zeroext) local_unnamed_addr #6

declare void @_ZN32pxrInternal_v0_24__pxrReserved__15Tf_RegistryInit3AddEPKcPFvPvS3_ES2_(ptr noundef, ptr noundef, ptr noundef) local_unnamed_addr #6

declare void @_ZN32pxrInternal_v0_24__pxrReserved__19Tf_RegistryInitCtorEPKc(ptr noundef) local_unnamed_addr #6

declare void @_ZN32pxrInternal_v0_24__pxrReserved__19Tf_RegistryInitDtorEPKc(ptr noundef) local_unnamed_addr #6

declare i32 @__gxx_personality_v0(...)

; Function Attrs: noreturn nounwind uwtable
define linkonce_odr hidden void @__clang_call_terminate(ptr noundef %0) local_unnamed_addr #7 comdat {
  %2 = tail call ptr @__cxa_begin_catch(ptr %0) #9
  tail call void @_ZSt9terminatev() #11
  unreachable
}

declare ptr @__cxa_begin_catch(ptr) local_unnamed_addr

; Function Attrs: cold nofree noreturn
declare void @_ZSt9terminatev() local_unnamed_addr #8

; Function Attrs: mustprogress nofree norecurse nosync nounwind willreturn memory(none) uwtable
define internal void @_GLOBAL__sub_I_pluginBase.cpp() #1 section ".text.startup" {
  ret void
}


!llvm.module.flags = !{!0, !1, !2, !3}

!0 = !{i32 1, !"wchar_size", i32 4}
!1 = !{i32 8, !"PIC Level", i32 2}
!2 = !{i32 7, !"uwtable", i32 2}
!3 = !{i32 7, !"frame-pointer", i32 2}
